; ModuleID = '52/2151.c'
source_filename = "52/2151.c"
target datalayout = "e-m:e-p270:32:32-p271:32:32-p272:64:64-i64:64-f80:128-n8:16:32:64-S128"
target triple = "x86_64-pc-linux-gnu"

@.str = private unnamed_addr constant [6 x i8] c"%d %d\00", align 1
@.str.1 = private unnamed_addr constant [4 x i8] c"%d \00", align 1
@.str.2 = private unnamed_addr constant [3 x i8] c"%d\00", align 1

; Function Attrs: noinline nounwind uwtable
define dso_local i32 @main() #0 {
  %1 = alloca i32, align 4
  %2 = alloca [1000 x i32], align 16
  %3 = alloca [1000 x i32], align 16
  %4 = alloca i32, align 4
  %5 = alloca i32, align 4
  %6 = alloca i32, align 4
  %7 = alloca i32, align 4
  store i32 0, i32* %1, align 4
  %8 = call i32 (i8*, ...) @__isoc99_scanf(i8* getelementptr inbounds ([6 x i8], [6 x i8]* @.str, i64 0, i64 0), i32* %5, i32* %4)
  store i32 0, i32* %6, align 4
  br label %9

9:                                                ; preds = %19, %0
  %10 = load i32, i32* %6, align 4
  %11 = load i32, i32* %5, align 4
  %12 = sub nsw i32 %11, 1
  %13 = icmp slt i32 %10, %12
  br i1 %13, label %14, label %22

14:                                               ; preds = %9
  %15 = load i32, i32* %6, align 4
  %16 = sext i32 %15 to i64
  %17 = getelementptr inbounds [1000 x i32], [1000 x i32]* %2, i64 0, i64 %16
  %18 = call i32 (i8*, ...) @__isoc99_scanf(i8* getelementptr inbounds ([4 x i8], [4 x i8]* @.str.1, i64 0, i64 0), i32* %17)
  br label %19

19:                                               ; preds = %14
  %20 = load i32, i32* %6, align 4
  %21 = add nsw i32 %20, 1
  store i32 %21, i32* %6, align 4
  br label %9

22:                                               ; preds = %9
  %23 = load i32, i32* %5, align 4
  %24 = sub nsw i32 %23, 1
  %25 = sext i32 %24 to i64
  %26 = getelementptr inbounds [1000 x i32], [1000 x i32]* %2, i64 0, i64 %25
  %27 = call i32 (i8*, ...) @__isoc99_scanf(i8* getelementptr inbounds ([3 x i8], [3 x i8]* @.str.2, i64 0, i64 0), i32* %26)
  store i32 0, i32* %6, align 4
  br label %28

28:                                               ; preds = %42, %22
  %29 = load i32, i32* %6, align 4
  %30 = load i32, i32* %5, align 4
  %31 = icmp slt i32 %29, %30
  br i1 %31, label %32, label %45

32:                                               ; preds = %28
  %33 = load i32, i32* %6, align 4
  %34 = sext i32 %33 to i64
  %35 = getelementptr inbounds [1000 x i32], [1000 x i32]* %2, i64 0, i64 %34
  %36 = load i32, i32* %35, align 4
  %37 = load i32, i32* %4, align 4
  %38 = load i32, i32* %6, align 4
  %39 = add nsw i32 %37, %38
  %40 = sext i32 %39 to i64
  %41 = getelementptr inbounds [1000 x i32], [1000 x i32]* %3, i64 0, i64 %40
  store i32 %36, i32* %41, align 4
  br label %42

42:                                               ; preds = %32
  %43 = load i32, i32* %6, align 4
  %44 = add nsw i32 %43, 1
  store i32 %44, i32* %6, align 4
  br label %28

45:                                               ; preds = %28
  %46 = load i32, i32* %6, align 4
  %47 = load i32, i32* %5, align 4
  %48 = icmp sge i32 %46, %47
  %49 = zext i1 %48 to i32
  br label %50

50:                                               ; preds = %66, %45
  %51 = load i32, i32* %6, align 4
  %52 = load i32, i32* %4, align 4
  %53 = load i32, i32* %5, align 4
  %54 = add nsw i32 %52, %53
  %55 = icmp slt i32 %51, %54
  br i1 %55, label %56, label %69

56:                                               ; preds = %50
  %57 = load i32, i32* %6, align 4
  %58 = sext i32 %57 to i64
  %59 = getelementptr inbounds [1000 x i32], [1000 x i32]* %3, i64 0, i64 %58
  %60 = load i32, i32* %59, align 4
  %61 = load i32, i32* %6, align 4
  %62 = load i32, i32* %5, align 4
  %63 = sub nsw i32 %61, %62
  %64 = sext i32 %63 to i64
  %65 = getelementptr inbounds [1000 x i32], [1000 x i32]* %3, i64 0, i64 %64
  store i32 %60, i32* %65, align 4
  br label %66

66:                                               ; preds = %56
  %67 = load i32, i32* %6, align 4
  %68 = add nsw i32 %67, 1
  store i32 %68, i32* %6, align 4
  br label %50

69:                                               ; preds = %50
  store i32 0, i32* %6, align 4
  br label %70

70:                                               ; preds = %81, %69
  %71 = load i32, i32* %6, align 4
  %72 = load i32, i32* %5, align 4
  %73 = sub nsw i32 %72, 1
  %74 = icmp slt i32 %71, %73
  br i1 %74, label %75, label %84

75:                                               ; preds = %70
  %76 = load i32, i32* %6, align 4
  %77 = sext i32 %76 to i64
  %78 = getelementptr inbounds [1000 x i32], [1000 x i32]* %3, i64 0, i64 %77
  %79 = load i32, i32* %78, align 4
  %80 = call i32 (i8*, ...) @printf(i8* getelementptr inbounds ([4 x i8], [4 x i8]* @.str.1, i64 0, i64 0), i32 %79)
  br label %81

81:                                               ; preds = %75
  %82 = load i32, i32* %6, align 4
  %83 = add nsw i32 %82, 1
  store i32 %83, i32* %6, align 4
  br label %70

84:                                               ; preds = %70
  %85 = load i32, i32* %5, align 4
  %86 = sub nsw i32 %85, 1
  %87 = sext i32 %86 to i64
  %88 = getelementptr inbounds [1000 x i32], [1000 x i32]* %3, i64 0, i64 %87
  %89 = load i32, i32* %88, align 4
  %90 = call i32 (i8*, ...) @printf(i8* getelementptr inbounds ([3 x i8], [3 x i8]* @.str.2, i64 0, i64 0), i32 %89)
  ret i32 0
}

declare dso_local i32 @__isoc99_scanf(i8*, ...) #1

declare dso_local i32 @printf(i8*, ...) #1


!llvm.module.flags = !{!0}
!llvm.ident = !{!1}

!0 = !{i32 1, !"wchar_size", i32 4}
!1 = !{!"clang version 10.0.0-4ubuntu1 "}
